target datalayout = "e-m:e-p270:32:32-p271:32:32-p272:64:64-i64:64-i128:128-f80:128-n8:16:32:64-S128"
target triple = "x86_64-pc-linux-gnu"

%struct.VP8EncIterator = type { i32, i32, ptr, ptr, ptr, ptr, ptr, ptr, ptr, ptr, ptr, [37 x i8], ptr, i32, [9 x i32], [9 x i32], [4 x [3 x i64]], i64, i64, ptr, i32, i32, i32, i32, [2 x [2 x i8]], ptr, ptr, ptr, ptr, ptr, ptr, [88 x i8], [3359 x i8] }
%struct.VP8Encoder = type { ptr, ptr, %struct.VP8EncFilterHeader, %struct.VP8EncSegmentHeader, i32, i32, i32, i32, i32, %struct.VP8BitWriter, [8 x %struct.VP8BitWriter], %struct.VP8TBuffer, i32, i32, ptr, i32, %struct.WebPWorker, [4 x %struct.VP8SegmentInfo], i32, i32, i32, i32, i32, i32, i32, i32, %struct.VP8EncProba, [4 x i64], i64, i32, [3 x [4 x i32]], [3 x i32], i32, i32, i32, i32, i32, i32, i32, ptr, ptr, ptr, ptr, ptr, ptr, ptr }
%struct.VP8EncFilterHeader = type { i32, i32, i32, i32 }
%struct.VP8EncSegmentHeader = type { i32, i32, i32 }
%struct.VP8BitWriter = type { i32, i32, i32, i32, ptr, i64, i64, i32 }
%struct.VP8TBuffer = type { ptr, ptr, ptr, i32, i32, i32 }
%struct.WebPWorker = type { ptr, i32, ptr, ptr, ptr, i32 }
%struct.VP8SegmentInfo = type { %struct.VP8Matrix, %struct.VP8Matrix, %struct.VP8Matrix, i32, i32, i32, i32, i32, i32, i32, i32, i32, i32, i32, i32, i32, i32, i32, i64 }
%struct.VP8Matrix = type { [16 x i16], [16 x i16], [16 x i32], [16 x i32], [16 x i16] }
%struct.VP8EncProba = type { [3 x i8], i8, [4 x [8 x [3 x [11 x i8]]]], [4 x [8 x [3 x [11 x i32]]]], [4 x [8 x [3 x [68 x i16]]]], [4 x [16 x [3 x ptr]]], i32, i32, i32 }
%struct.WebPPicture = type { i32, i32, i32, i32, ptr, ptr, ptr, i32, i32, ptr, i32, [2 x i32], ptr, i32, [3 x i32], ptr, ptr, i32, ptr, ptr, i32, ptr, ptr, [3 x i32], ptr, ptr, [8 x i32], ptr, ptr, [2 x ptr] }

; Function Attrs: nounwind uwtable
define internal i32 @PostLoopFinalize(ptr noundef %0, i32 noundef %1) #0 {
  %3 = alloca i32, align 4
  %4 = alloca ptr, align 8
  %5 = alloca i32, align 4
  %6 = alloca ptr, align 8
  %7 = alloca i32, align 4
  %8 = alloca i32, align 4
  %9 = alloca i32, align 4
  %10 = alloca i32, align 4
  store ptr %0, ptr %4, align 8, !tbaa !56
  store i32 %1, ptr %5, align 4, !tbaa !8
  call void @llvm.lifetime.start.p0(i64 8, ptr %6) #7
  %11 = load ptr, ptr %4, align 8, !tbaa !56
  %12 = getelementptr inbounds nuw %struct.VP8EncIterator, ptr %11, i32 0, i32 6
  %13 = load ptr, ptr %12, align 8, !tbaa !58
  store ptr %13, ptr %6, align 8, !tbaa !3
  %14 = load i32, ptr %5, align 4, !tbaa !8
  %15 = icmp ne i32 %14, 0
  br i1 %15, label %16, label %47

16:                                               ; preds = %2
  call void @llvm.lifetime.start.p0(i64 4, ptr %7) #7
  store i32 0, ptr %7, align 4, !tbaa !8
  br label %17

17:                                               ; preds = %43, %16
  %18 = load i32, ptr %7, align 4, !tbaa !8
  %19 = load ptr, ptr %6, align 8, !tbaa !3
  %20 = getelementptr inbounds nuw %struct.VP8Encoder, ptr %19, i32 0, i32 8
  %21 = load i32, ptr %20, align 4, !tbaa !38
  %22 = icmp slt i32 %18, %21
  br i1 %22, label %23, label %46

23:                                               ; preds = %17
  %24 = load ptr, ptr %6, align 8, !tbaa !3
  %25 = getelementptr inbounds nuw %struct.VP8Encoder, ptr %24, i32 0, i32 10
  %26 = getelementptr inbounds [8 x %struct.VP8BitWriter], ptr %25, i64 0, i64 0
  %27 = load i32, ptr %7, align 4, !tbaa !8
  %28 = sext i32 %27 to i64
  %29 = getelementptr inbounds %struct.VP8BitWriter, ptr %26, i64 %28
  %30 = call ptr @VP8BitWriterFinish(ptr noundef %29)
  %31 = load ptr, ptr %6, align 8, !tbaa !3
  %32 = getelementptr inbounds nuw %struct.VP8Encoder, ptr %31, i32 0, i32 10
  %33 = load i32, ptr %7, align 4, !tbaa !8
  %34 = sext i32 %33 to i64
  %35 = getelementptr inbounds [8 x %struct.VP8BitWriter], ptr %32, i64 0, i64 %34
  %36 = getelementptr inbounds nuw %struct.VP8BitWriter, ptr %35, i32 0, i32 7
  %37 = load i32, ptr %36, align 8, !tbaa !31
  %38 = icmp ne i32 %37, 0
  %39 = xor i1 %38, true
  %40 = zext i1 %39 to i32
  %41 = load i32, ptr %5, align 4, !tbaa !8
  %42 = and i32 %41, %40
  store i32 %42, ptr %5, align 4, !tbaa !8
  br label %43

43:                                               ; preds = %23
  %44 = load i32, ptr %7, align 4, !tbaa !8
  %45 = add nsw i32 %44, 1
  store i32 %45, ptr %7, align 4, !tbaa !8
  br label %17, !llvm.loop !82

46:                                               ; preds = %17
  call void @llvm.lifetime.end.p0(i64 4, ptr %7) #7
  br label %47

47:                                               ; preds = %46, %2
  %48 = load i32, ptr %5, align 4, !tbaa !8
  %49 = icmp ne i32 %48, 0
  br i1 %49, label %50, label %96

50:                                               ; preds = %47
  %51 = load ptr, ptr %6, align 8, !tbaa !3
  %52 = getelementptr inbounds nuw %struct.VP8Encoder, ptr %51, i32 0, i32 1
  %53 = load ptr, ptr %52, align 8, !tbaa !40
  %54 = getelementptr inbounds nuw %struct.WebPPicture, ptr %53, i32 0, i32 19
  %55 = load ptr, ptr %54, align 8, !tbaa !68
  %56 = icmp ne ptr %55, null
  br i1 %56, label %57, label %94

57:                                               ; preds = %50
  call void @llvm.lifetime.start.p0(i64 4, ptr %8) #7
  call void @llvm.lifetime.start.p0(i64 4, ptr %9) #7
  store i32 0, ptr %8, align 4, !tbaa !8
  br label %58

58:                                               ; preds = %90, %57
  %59 = load i32, ptr %8, align 4, !tbaa !8
  %60 = icmp sle i32 %59, 2
  br i1 %60, label %61, label %93

61:                                               ; preds = %58
  store i32 0, ptr %9, align 4, !tbaa !8
  br label %62

62:                                               ; preds = %86, %61
  %63 = load i32, ptr %9, align 4, !tbaa !8
  %64 = icmp slt i32 %63, 4
  br i1 %64, label %65, label %89

65:                                               ; preds = %62
  %66 = load ptr, ptr %4, align 8, !tbaa !56
  %67 = getelementptr inbounds nuw %struct.VP8EncIterator, ptr %66, i32 0, i32 16
  %68 = load i32, ptr %9, align 4, !tbaa !8
  %69 = sext i32 %68 to i64
  %70 = getelementptr inbounds [4 x [3 x i64]], ptr %67, i64 0, i64 %69
  %71 = load i32, ptr %8, align 4, !tbaa !8
  %72 = sext i32 %71 to i64
  %73 = getelementptr inbounds [3 x i64], ptr %70, i64 0, i64 %72
  %74 = load i64, ptr %73, align 8, !tbaa !52
  %75 = add i64 %74, 7
  %76 = lshr i64 %75, 3
  %77 = trunc i64 %76 to i32
  %78 = load ptr, ptr %6, align 8, !tbaa !3
  %79 = getelementptr inbounds nuw %struct.VP8Encoder, ptr %78, i32 0, i32 30
  %80 = load i32, ptr %8, align 4, !tbaa !8
  %81 = sext i32 %80 to i64
  %82 = getelementptr inbounds [3 x [4 x i32]], ptr %79, i64 0, i64 %81
  %83 = load i32, ptr %9, align 4, !tbaa !8
  %84 = sext i32 %83 to i64
  %85 = getelementptr inbounds [4 x i32], ptr %82, i64 0, i64 %84
  store i32 %77, ptr %85, align 4, !tbaa !8
  br label %86

86:                                               ; preds = %65
  %87 = load i32, ptr %9, align 4, !tbaa !8
  %88 = add nsw i32 %87, 1
  store i32 %88, ptr %9, align 4, !tbaa !8
  br label %62, !llvm.loop !83

89:                                               ; preds = %62
  br label %90

90:                                               ; preds = %89
  %91 = load i32, ptr %8, align 4, !tbaa !8
  %92 = add nsw i32 %91, 1
  store i32 %92, ptr %8, align 4, !tbaa !8
  br label %58, !llvm.loop !84

93:                                               ; preds = %58
  call void @llvm.lifetime.end.p0(i64 4, ptr %9) #7
  call void @llvm.lifetime.end.p0(i64 4, ptr %8) #7
  br label %94

94:                                               ; preds = %93, %50
  %95 = load ptr, ptr %4, align 8, !tbaa !56
  call void @VP8AdjustFilterStrength(ptr noundef %95)
  br label %102

96:                                               ; preds = %47
  %97 = load ptr, ptr %6, align 8, !tbaa !3
  call void @VP8EncFreeBitWriters(ptr noundef %97)
  %98 = load ptr, ptr %6, align 8, !tbaa !3
  %99 = getelementptr inbounds nuw %struct.VP8Encoder, ptr %98, i32 0, i32 1
  %100 = load ptr, ptr %99, align 8, !tbaa !40
  %101 = call i32 @WebPEncodingSetError(ptr noundef %100, i32 noundef 1)
  store i32 %101, ptr %3, align 4
  store i32 1, ptr %10, align 4
  br label %104

102:                                              ; preds = %94
  %103 = load i32, ptr %5, align 4, !tbaa !8
  store i32 %103, ptr %3, align 4
  store i32 1, ptr %10, align 4
  br label %104

104:                                              ; preds = %102, %96
  call void @llvm.lifetime.end.p0(i64 8, ptr %6) #7
  %105 = load i32, ptr %3, align 4
  ret i32 %105
}