; Function Attrs: nounwind uwtable
define internal fastcc i32 @PostLoopFinalize(ptr noundef nonnull %0, i32 noundef %1) unnamed_addr #0 {
  %3 = getelementptr inbounds nuw i8, ptr %0, i64 40
  %4 = load ptr, ptr %3, align 8, !tbaa !45
  %.not = icmp eq i32 %1, 0
  br i1 %.not, label %.thread, label %.preheader38

.preheader38:                                     ; preds = %2
  %5 = getelementptr inbounds nuw i8, ptr %4, i64 60
  %6 = load i32, ptr %5, align 4, !tbaa !27
  %7 = icmp sgt i32 %6, 0
  br i1 %7, label %.lr.ph, label %._crit_edge.thread

.lr.ph:                                           ; preds = %.preheader38
  %8 = getelementptr inbounds nuw i8, ptr %4, i64 112
  %invariant.gep = getelementptr inbounds nuw i8, ptr %4, i64 152
  %9 = and i32 %1, 1
  br label %10

10:                                               ; preds = %.lr.ph, %10
  %indvars.iv = phi i64 [ 0, %.lr.ph ], [ %indvars.iv.next, %10 ]
  %.139 = phi i32 [ %9, %.lr.ph ], [ %14, %10 ]
  %11 = getelementptr inbounds nuw %struct.VP8BitWriter, ptr %8, i64 %indvars.iv
  %12 = tail call ptr @VP8BitWriterFinish(ptr noundef nonnull %11) #8
  %.idx = mul nuw nsw i64 %indvars.iv, 48
  %gep = getelementptr inbounds nuw i8, ptr %invariant.gep, i64 %.idx
  %13 = load i32, ptr %gep, align 8, !tbaa !83
  %.not34 = icmp eq i32 %13, 0
  %14 = select i1 %.not34, i32 %.139, i32 0
  %indvars.iv.next = add nuw nsw i64 %indvars.iv, 1
  %15 = load i32, ptr %5, align 4, !tbaa !27
  %16 = sext i32 %15 to i64
  %17 = icmp slt i64 %indvars.iv.next, %16
  br i1 %17, label %10, label %._crit_edge, !llvm.loop !102

._crit_edge:                                      ; preds = %10
  %.not32 = icmp eq i32 %14, 0
  br i1 %.not32, label %.thread, label %._crit_edge.thread

._crit_edge.thread:                               ; preds = %.preheader38, %._crit_edge
  %.1.lcssa53 = phi i32 [ %.139, %._crit_edge ], [ %1, %.preheader38 ]
  %18 = getelementptr inbounds nuw i8, ptr %4, i64 8
  %19 = load ptr, ptr %18, align 8, !tbaa !30
  %20 = getelementptr inbounds nuw i8, ptr %19, i64 128
  %21 = load ptr, ptr %20, align 8, !tbaa !86
  %.not33 = icmp eq ptr %21, null
  br i1 %.not33, label %.loopexit, label %.preheader37

.preheader37:                                     ; preds = %._crit_edge.thread
  %22 = getelementptr inbounds nuw i8, ptr %0, i64 208
  %23 = getelementptr inbounds nuw i8, ptr %4, i64 23556
  br label %.preheader

.preheader:                                       ; preds = %.preheader37, %31
  %indvars.iv47 = phi i64 [ 0, %.preheader37 ], [ %indvars.iv.next48, %31 ]
  br label %24

24:                                               ; preds = %.preheader, %24
  %indvars.iv44 = phi i64 [ 0, %.preheader ], [ %indvars.iv.next45, %24 ]
  %25 = getelementptr inbounds nuw [4 x [3 x i64]], ptr %22, i64 0, i64 %indvars.iv44, i64 %indvars.iv47
  %26 = load i64, ptr %25, align 8, !tbaa !82
  %27 = add i64 %26, 7
  %28 = lshr i64 %27, 3
  %29 = trunc i64 %28 to i32
  %30 = getelementptr inbounds nuw [3 x [4 x i32]], ptr %23, i64 0, i64 %indvars.iv47, i64 %indvars.iv44
  store i32 %29, ptr %30, align 4, !tbaa !51
  %indvars.iv.next45 = add nuw nsw i64 %indvars.iv44, 1
  %exitcond.not = icmp eq i64 %indvars.iv.next45, 4
  br i1 %exitcond.not, label %31, label %24, !llvm.loop !103

31:                                               ; preds = %24
  %indvars.iv.next48 = add nuw nsw i64 %indvars.iv47, 1
  %exitcond50.not = icmp eq i64 %indvars.iv.next48, 3
  br i1 %exitcond50.not, label %.loopexit, label %.preheader, !llvm.loop !104

.loopexit:                                        ; preds = %31, %._crit_edge.thread
  tail call void @VP8AdjustFilterStrength(ptr noundef nonnull %0) #8
  br label %35

.thread:                                          ; preds = %2, %._crit_edge
  tail call void @VP8EncFreeBitWriters(ptr noundef %4) #8
  %32 = getelementptr inbounds nuw i8, ptr %4, i64 8
  %33 = load ptr, ptr %32, align 8, !tbaa !30
  %34 = tail call i32 @WebPEncodingSetError(ptr noundef %33, i32 noundef 1) #8
  br label %35

35:                                               ; preds = %.loopexit, %.thread
  %.028 = phi i32 [ %.1.lcssa53, %.loopexit ], [ %34, %.thread ]
  ret i32 %.028
}